target datalayout = "e-m:e-p270:32:32-p271:32:32-p272:64:64-i64:64-i128:128-f80:128-n8:16:32:64-S128"
target triple = "x86_64-pc-linux-gnu"

%struct._zval_struct = type { %union._zend_value, %union.anon.0, %union.anon.3 }
%union._zend_value = type { i64 }
%union.anon.0 = type { i32 }
%union.anon.3 = type { i32 }
%struct._zend_array = type { %struct._zend_refcounted_h, %union.anon.5, i32, %union.anon.7, i32, i32, i32, i32, i64, ptr }
%struct._zend_refcounted_h = type { i32, %union.anon }
%union.anon = type { i32 }
%union.anon.5 = type { i32 }
%union.anon.7 = type { ptr }
%struct._zend_class_entry = type { i8, ptr, %union.anon.10, i32, i32, i32, i32, ptr, ptr, ptr, %struct._zend_array, %struct._zend_array, %struct._zend_array, ptr, ptr, ptr, ptr, ptr, ptr, ptr, ptr, ptr, ptr, ptr, ptr, ptr, ptr, ptr, ptr, ptr, ptr, ptr, %union.anon.11, ptr, ptr, ptr, ptr, i32, i32, %union.anon.12, ptr, ptr, ptr, ptr, i32, ptr, ptr, %union.anon.13 }
%union.anon.10 = type { ptr }
%union.anon.11 = type { ptr }
%union.anon.12 = type { ptr }
%union.anon.13 = type { %struct.anon.14 }
%struct.anon.14 = type { ptr, i32, i32 }
%struct._zend_object = type { %struct._zend_refcounted_h, i32, ptr, ptr, ptr, [1 x %struct._zval_struct] }
%struct._php_timezone_obj = type { i8, i32, %union.anon.9, %struct._zend_object }
%union.anon.9 = type { %struct._timelib_abbr_info }
%struct._timelib_abbr_info = type { i64, ptr, i32 }

; Function Attrs: nounwind uwtable
define internal ptr @date_object_new_timezone(ptr noundef %0) #0 {
  %2 = alloca ptr, align 8
  %3 = alloca i64, align 8
  %4 = alloca ptr, align 8
  %5 = alloca ptr, align 8
  %6 = alloca ptr, align 8
  %7 = alloca ptr, align 8
  store ptr %0, ptr %6, align 8
  %8 = load ptr, ptr %6, align 8
  store i64 88, ptr %3, align 8
  store ptr %8, ptr %4, align 8
  %9 = load i64, ptr %3, align 8
  %10 = load ptr, ptr %4, align 8
  store ptr %10, ptr %2, align 8
  %11 = load ptr, ptr %2, align 8
  %12 = getelementptr inbounds %struct._zend_class_entry, ptr %11, i32 0, i32 5
  %13 = load i32, ptr %12, align 8
  %14 = load ptr, ptr %2, align 8
  %15 = getelementptr inbounds %struct._zend_class_entry, ptr %14, i32 0, i32 4
  %16 = load i32, ptr %15, align 4
  %17 = and i32 %16, 2048
  %18 = icmp ne i32 %17, 0
  %19 = select i1 %18, i32 0, i32 1
  %20 = sub nsw i32 %13, %19
  %21 = sext i32 %20 to i64
  %22 = mul i64 16, %21
  %23 = add i64 %9, %22
  %24 = call noalias ptr @_emalloc(i64 noundef %23) #15
  store ptr %24, ptr %5, align 8
  %25 = load ptr, ptr %5, align 8
  %26 = load i64, ptr %3, align 8
  %27 = sub i64 %26, 56
  call void @llvm.memset.p0.i64(ptr align 1 %25, i8 0, i64 %27, i1 false)
  %28 = load ptr, ptr %5, align 8
  store ptr %28, ptr %7, align 8
  %29 = load ptr, ptr %7, align 8
  %30 = getelementptr inbounds %struct._php_timezone_obj, ptr %29, i32 0, i32 3
  %31 = load ptr, ptr %6, align 8
  call void @zend_object_std_init(ptr noundef %30, ptr noundef %31)
  %32 = load ptr, ptr %7, align 8
  %33 = getelementptr inbounds %struct._php_timezone_obj, ptr %32, i32 0, i32 3
  %34 = load ptr, ptr %6, align 8
  call void @object_properties_init(ptr noundef %33, ptr noundef %34)
  %35 = load ptr, ptr %7, align 8
  %36 = getelementptr inbounds %struct._php_timezone_obj, ptr %35, i32 0, i32 3
  ret ptr %36
}